target datalayout = "e-m:e-p270:32:32-p271:32:32-p272:64:64-i64:64-i128:128-f80:128-n8:16:32:64-S128"
target triple = "x86_64-pc-linux-gnu"

%struct.DES_cblock_st = type { [8 x i8] }

; Function Attrs: nounwind uwtable
define hidden void @DES_ede3_cfb64_encrypt(ptr noundef %0, ptr noundef %1, i64 noundef %2, ptr noundef %3, ptr noundef %4, ptr noundef %5, ptr noundef %6, ptr noundef %7, i32 noundef %8) #0 {
  %10 = alloca ptr, align 8
  %11 = alloca ptr, align 8
  %12 = alloca i64, align 8
  %13 = alloca ptr, align 8
  %14 = alloca ptr, align 8
  %15 = alloca ptr, align 8
  %16 = alloca ptr, align 8
  %17 = alloca ptr, align 8
  %18 = alloca i32, align 4
  %19 = alloca i32, align 4
  %20 = alloca i32, align 4
  %21 = alloca i64, align 8
  %22 = alloca i32, align 4
  %23 = alloca [2 x i32], align 4
  %24 = alloca ptr, align 8
  %25 = alloca i8, align 1
  %26 = alloca i8, align 1
  store ptr %0, ptr %10, align 8, !tbaa !6
  store ptr %1, ptr %11, align 8, !tbaa !6
  store i64 %2, ptr %12, align 8, !tbaa !11
  store ptr %3, ptr %13, align 8, !tbaa !13
  store ptr %4, ptr %14, align 8, !tbaa !13
  store ptr %5, ptr %15, align 8, !tbaa !13
  store ptr %6, ptr %16, align 8, !tbaa !15
  store ptr %7, ptr %17, align 8, !tbaa !17
  store i32 %8, ptr %18, align 4, !tbaa !19
  call void @llvm.lifetime.start.p0(i64 4, ptr %19) #4
  call void @llvm.lifetime.start.p0(i64 4, ptr %20) #4
  call void @llvm.lifetime.start.p0(i64 8, ptr %21) #4
  %27 = load i64, ptr %12, align 8, !tbaa !11
  store i64 %27, ptr %21, align 8, !tbaa !11
  call void @llvm.lifetime.start.p0(i64 4, ptr %22) #4
  %28 = load ptr, ptr %17, align 8, !tbaa !17
  %29 = load i32, ptr %28, align 4, !tbaa !19
  store i32 %29, ptr %22, align 4, !tbaa !19
  call void @llvm.lifetime.start.p0(i64 8, ptr %23) #4
  call void @llvm.lifetime.start.p0(i64 8, ptr %24) #4
  call void @llvm.lifetime.start.p0(i64 1, ptr %25) #4
  call void @llvm.lifetime.start.p0(i64 1, ptr %26) #4
  %30 = load ptr, ptr %16, align 8, !tbaa !15
  %31 = getelementptr inbounds nuw %struct.DES_cblock_st, ptr %30, i32 0, i32 0
  %32 = getelementptr inbounds [8 x i8], ptr %31, i64 0, i64 0
  store ptr %32, ptr %24, align 8, !tbaa !6
  %33 = load i32, ptr %18, align 4, !tbaa !19
  %34 = icmp ne i32 %33, 0
  br i1 %34, label %35, label %183

35:                                               ; preds = %9
  br label %36

36:                                               ; preds = %158, %35
  %37 = load i64, ptr %21, align 8, !tbaa !11
  %38 = add nsw i64 %37, -1
  store i64 %38, ptr %21, align 8, !tbaa !11
  %39 = icmp ne i64 %37, 0
  br i1 %39, label %40, label %182

40:                                               ; preds = %36
  %41 = load i32, ptr %22, align 4, !tbaa !19
  %42 = icmp eq i32 %41, 0
  br i1 %42, label %43, label %158

43:                                               ; preds = %40
  %44 = load ptr, ptr %24, align 8, !tbaa !6
  %45 = getelementptr inbounds nuw i8, ptr %44, i32 1
  store ptr %45, ptr %24, align 8, !tbaa !6
  %46 = load i8, ptr %44, align 1, !tbaa !21
  %47 = zext i8 %46 to i32
  store i32 %47, ptr %19, align 4, !tbaa !19
  %48 = load ptr, ptr %24, align 8, !tbaa !6
  %49 = getelementptr inbounds nuw i8, ptr %48, i32 1
  store ptr %49, ptr %24, align 8, !tbaa !6
  %50 = load i8, ptr %48, align 1, !tbaa !21
  %51 = zext i8 %50 to i32
  %52 = shl i32 %51, 8
  %53 = load i32, ptr %19, align 4, !tbaa !19
  %54 = or i32 %53, %52
  store i32 %54, ptr %19, align 4, !tbaa !19
  %55 = load ptr, ptr %24, align 8, !tbaa !6
  %56 = getelementptr inbounds nuw i8, ptr %55, i32 1
  store ptr %56, ptr %24, align 8, !tbaa !6
  %57 = load i8, ptr %55, align 1, !tbaa !21
  %58 = zext i8 %57 to i32
  %59 = shl i32 %58, 16
  %60 = load i32, ptr %19, align 4, !tbaa !19
  %61 = or i32 %60, %59
  store i32 %61, ptr %19, align 4, !tbaa !19
  %62 = load ptr, ptr %24, align 8, !tbaa !6
  %63 = getelementptr inbounds nuw i8, ptr %62, i32 1
  store ptr %63, ptr %24, align 8, !tbaa !6
  %64 = load i8, ptr %62, align 1, !tbaa !21
  %65 = zext i8 %64 to i32
  %66 = shl i32 %65, 24
  %67 = load i32, ptr %19, align 4, !tbaa !19
  %68 = or i32 %67, %66
  store i32 %68, ptr %19, align 4, !tbaa !19
  %69 = load ptr, ptr %24, align 8, !tbaa !6
  %70 = getelementptr inbounds nuw i8, ptr %69, i32 1
  store ptr %70, ptr %24, align 8, !tbaa !6
  %71 = load i8, ptr %69, align 1, !tbaa !21
  %72 = zext i8 %71 to i32
  store i32 %72, ptr %20, align 4, !tbaa !19
  %73 = load ptr, ptr %24, align 8, !tbaa !6
  %74 = getelementptr inbounds nuw i8, ptr %73, i32 1
  store ptr %74, ptr %24, align 8, !tbaa !6
  %75 = load i8, ptr %73, align 1, !tbaa !21
  %76 = zext i8 %75 to i32
  %77 = shl i32 %76, 8
  %78 = load i32, ptr %20, align 4, !tbaa !19
  %79 = or i32 %78, %77
  store i32 %79, ptr %20, align 4, !tbaa !19
  %80 = load ptr, ptr %24, align 8, !tbaa !6
  %81 = getelementptr inbounds nuw i8, ptr %80, i32 1
  store ptr %81, ptr %24, align 8, !tbaa !6
  %82 = load i8, ptr %80, align 1, !tbaa !21
  %83 = zext i8 %82 to i32
  %84 = shl i32 %83, 16
  %85 = load i32, ptr %20, align 4, !tbaa !19
  %86 = or i32 %85, %84
  store i32 %86, ptr %20, align 4, !tbaa !19
  %87 = load ptr, ptr %24, align 8, !tbaa !6
  %88 = getelementptr inbounds nuw i8, ptr %87, i32 1
  store ptr %88, ptr %24, align 8, !tbaa !6
  %89 = load i8, ptr %87, align 1, !tbaa !21
  %90 = zext i8 %89 to i32
  %91 = shl i32 %90, 24
  %92 = load i32, ptr %20, align 4, !tbaa !19
  %93 = or i32 %92, %91
  store i32 %93, ptr %20, align 4, !tbaa !19
  %94 = load i32, ptr %19, align 4, !tbaa !19
  %95 = getelementptr inbounds [2 x i32], ptr %23, i64 0, i64 0
  store i32 %94, ptr %95, align 4, !tbaa !19
  %96 = load i32, ptr %20, align 4, !tbaa !19
  %97 = getelementptr inbounds [2 x i32], ptr %23, i64 0, i64 1
  store i32 %96, ptr %97, align 4, !tbaa !19
  %98 = getelementptr inbounds [2 x i32], ptr %23, i64 0, i64 0
  %99 = load ptr, ptr %13, align 8, !tbaa !13
  %100 = load ptr, ptr %14, align 8, !tbaa !13
  %101 = load ptr, ptr %15, align 8, !tbaa !13
  call void @DES_encrypt3(ptr noundef %98, ptr noundef %99, ptr noundef %100, ptr noundef %101)
  %102 = getelementptr inbounds [2 x i32], ptr %23, i64 0, i64 0
  %103 = load i32, ptr %102, align 4, !tbaa !19
  store i32 %103, ptr %19, align 4, !tbaa !19
  %104 = getelementptr inbounds [2 x i32], ptr %23, i64 0, i64 1
  %105 = load i32, ptr %104, align 4, !tbaa !19
  store i32 %105, ptr %20, align 4, !tbaa !19
  %106 = load ptr, ptr %16, align 8, !tbaa !15
  %107 = getelementptr inbounds nuw %struct.DES_cblock_st, ptr %106, i32 0, i32 0
  %108 = getelementptr inbounds [8 x i8], ptr %107, i64 0, i64 0
  store ptr %108, ptr %24, align 8, !tbaa !6
  %109 = load i32, ptr %19, align 4, !tbaa !19
  %110 = and i32 %109, 255
  %111 = trunc i32 %110 to i8
  %112 = load ptr, ptr %24, align 8, !tbaa !6
  %113 = getelementptr inbounds nuw i8, ptr %112, i32 1
  store ptr %113, ptr %24, align 8, !tbaa !6
  store i8 %111, ptr %112, align 1, !tbaa !21
  %114 = load i32, ptr %19, align 4, !tbaa !19
  %115 = lshr i32 %114, 8
  %116 = and i32 %115, 255
  %117 = trunc i32 %116 to i8
  %118 = load ptr, ptr %24, align 8, !tbaa !6
  %119 = getelementptr inbounds nuw i8, ptr %118, i32 1
  store ptr %119, ptr %24, align 8, !tbaa !6
  store i8 %117, ptr %118, align 1, !tbaa !21
  %120 = load i32, ptr %19, align 4, !tbaa !19
  %121 = lshr i32 %120, 16
  %122 = and i32 %121, 255
  %123 = trunc i32 %122 to i8
  %124 = load ptr, ptr %24, align 8, !tbaa !6
  %125 = getelementptr inbounds nuw i8, ptr %124, i32 1
  store ptr %125, ptr %24, align 8, !tbaa !6
  store i8 %123, ptr %124, align 1, !tbaa !21
  %126 = load i32, ptr %19, align 4, !tbaa !19
  %127 = lshr i32 %126, 24
  %128 = and i32 %127, 255
  %129 = trunc i32 %128 to i8
  %130 = load ptr, ptr %24, align 8, !tbaa !6
  %131 = getelementptr inbounds nuw i8, ptr %130, i32 1
  store ptr %131, ptr %24, align 8, !tbaa !6
  store i8 %129, ptr %130, align 1, !tbaa !21
  %132 = load i32, ptr %20, align 4, !tbaa !19
  %133 = and i32 %132, 255
  %134 = trunc i32 %133 to i8
  %135 = load ptr, ptr %24, align 8, !tbaa !6
  %136 = getelementptr inbounds nuw i8, ptr %135, i32 1
  store ptr %136, ptr %24, align 8, !tbaa !6
  store i8 %134, ptr %135, align 1, !tbaa !21
  %137 = load i32, ptr %20, align 4, !tbaa !19
  %138 = lshr i32 %137, 8
  %139 = and i32 %138, 255
  %140 = trunc i32 %139 to i8
  %141 = load ptr, ptr %24, align 8, !tbaa !6
  %142 = getelementptr inbounds nuw i8, ptr %141, i32 1
  store ptr %142, ptr %24, align 8, !tbaa !6
  store i8 %140, ptr %141, align 1, !tbaa !21
  %143 = load i32, ptr %20, align 4, !tbaa !19
  %144 = lshr i32 %143, 16
  %145 = and i32 %144, 255
  %146 = trunc i32 %145 to i8
  %147 = load ptr, ptr %24, align 8, !tbaa !6
  %148 = getelementptr inbounds nuw i8, ptr %147, i32 1
  store ptr %148, ptr %24, align 8, !tbaa !6
  store i8 %146, ptr %147, align 1, !tbaa !21
  %149 = load i32, ptr %20, align 4, !tbaa !19
  %150 = lshr i32 %149, 24
  %151 = and i32 %150, 255
  %152 = trunc i32 %151 to i8
  %153 = load ptr, ptr %24, align 8, !tbaa !6
  %154 = getelementptr inbounds nuw i8, ptr %153, i32 1
  store ptr %154, ptr %24, align 8, !tbaa !6
  store i8 %152, ptr %153, align 1, !tbaa !21
  %155 = load ptr, ptr %16, align 8, !tbaa !15
  %156 = getelementptr inbounds nuw %struct.DES_cblock_st, ptr %155, i32 0, i32 0
  %157 = getelementptr inbounds [8 x i8], ptr %156, i64 0, i64 0
  store ptr %157, ptr %24, align 8, !tbaa !6
  br label %158

158:                                              ; preds = %43, %40
  %159 = load ptr, ptr %10, align 8, !tbaa !6
  %160 = getelementptr inbounds nuw i8, ptr %159, i32 1
  store ptr %160, ptr %10, align 8, !tbaa !6
  %161 = load i8, ptr %159, align 1, !tbaa !21
  %162 = zext i8 %161 to i32
  %163 = load ptr, ptr %24, align 8, !tbaa !6
  %164 = load i32, ptr %22, align 4, !tbaa !19
  %165 = sext i32 %164 to i64
  %166 = getelementptr inbounds i8, ptr %163, i64 %165
  %167 = load i8, ptr %166, align 1, !tbaa !21
  %168 = zext i8 %167 to i32
  %169 = xor i32 %162, %168
  %170 = trunc i32 %169 to i8
  store i8 %170, ptr %25, align 1, !tbaa !21
  %171 = load i8, ptr %25, align 1, !tbaa !21
  %172 = load ptr, ptr %11, align 8, !tbaa !6
  %173 = getelementptr inbounds nuw i8, ptr %172, i32 1
  store ptr %173, ptr %11, align 8, !tbaa !6
  store i8 %171, ptr %172, align 1, !tbaa !21
  %174 = load i8, ptr %25, align 1, !tbaa !21
  %175 = load ptr, ptr %24, align 8, !tbaa !6
  %176 = load i32, ptr %22, align 4, !tbaa !19
  %177 = sext i32 %176 to i64
  %178 = getelementptr inbounds i8, ptr %175, i64 %177
  store i8 %174, ptr %178, align 1, !tbaa !21
  %179 = load i32, ptr %22, align 4, !tbaa !19
  %180 = add nsw i32 %179, 1
  %181 = and i32 %180, 7
  store i32 %181, ptr %22, align 4, !tbaa !19
  br label %36, !llvm.loop !22

182:                                              ; preds = %36
  br label %332

183:                                              ; preds = %9
  br label %184

184:                                              ; preds = %306, %183
  %185 = load i64, ptr %21, align 8, !tbaa !11
  %186 = add nsw i64 %185, -1
  store i64 %186, ptr %21, align 8, !tbaa !11
  %187 = icmp ne i64 %185, 0
  br i1 %187, label %188, label %331

188:                                              ; preds = %184
  %189 = load i32, ptr %22, align 4, !tbaa !19
  %190 = icmp eq i32 %189, 0
  br i1 %190, label %191, label %306

191:                                              ; preds = %188
  %192 = load ptr, ptr %24, align 8, !tbaa !6
  %193 = getelementptr inbounds nuw i8, ptr %192, i32 1
  store ptr %193, ptr %24, align 8, !tbaa !6
  %194 = load i8, ptr %192, align 1, !tbaa !21
  %195 = zext i8 %194 to i32
  store i32 %195, ptr %19, align 4, !tbaa !19
  %196 = load ptr, ptr %24, align 8, !tbaa !6
  %197 = getelementptr inbounds nuw i8, ptr %196, i32 1
  store ptr %197, ptr %24, align 8, !tbaa !6
  %198 = load i8, ptr %196, align 1, !tbaa !21
  %199 = zext i8 %198 to i32
  %200 = shl i32 %199, 8
  %201 = load i32, ptr %19, align 4, !tbaa !19
  %202 = or i32 %201, %200
  store i32 %202, ptr %19, align 4, !tbaa !19
  %203 = load ptr, ptr %24, align 8, !tbaa !6
  %204 = getelementptr inbounds nuw i8, ptr %203, i32 1
  store ptr %204, ptr %24, align 8, !tbaa !6
  %205 = load i8, ptr %203, align 1, !tbaa !21
  %206 = zext i8 %205 to i32
  %207 = shl i32 %206, 16
  %208 = load i32, ptr %19, align 4, !tbaa !19
  %209 = or i32 %208, %207
  store i32 %209, ptr %19, align 4, !tbaa !19
  %210 = load ptr, ptr %24, align 8, !tbaa !6
  %211 = getelementptr inbounds nuw i8, ptr %210, i32 1
  store ptr %211, ptr %24, align 8, !tbaa !6
  %212 = load i8, ptr %210, align 1, !tbaa !21
  %213 = zext i8 %212 to i32
  %214 = shl i32 %213, 24
  %215 = load i32, ptr %19, align 4, !tbaa !19
  %216 = or i32 %215, %214
  store i32 %216, ptr %19, align 4, !tbaa !19
  %217 = load ptr, ptr %24, align 8, !tbaa !6
  %218 = getelementptr inbounds nuw i8, ptr %217, i32 1
  store ptr %218, ptr %24, align 8, !tbaa !6
  %219 = load i8, ptr %217, align 1, !tbaa !21
  %220 = zext i8 %219 to i32
  store i32 %220, ptr %20, align 4, !tbaa !19
  %221 = load ptr, ptr %24, align 8, !tbaa !6
  %222 = getelementptr inbounds nuw i8, ptr %221, i32 1
  store ptr %222, ptr %24, align 8, !tbaa !6
  %223 = load i8, ptr %221, align 1, !tbaa !21
  %224 = zext i8 %223 to i32
  %225 = shl i32 %224, 8
  %226 = load i32, ptr %20, align 4, !tbaa !19
  %227 = or i32 %226, %225
  store i32 %227, ptr %20, align 4, !tbaa !19
  %228 = load ptr, ptr %24, align 8, !tbaa !6
  %229 = getelementptr inbounds nuw i8, ptr %228, i32 1
  store ptr %229, ptr %24, align 8, !tbaa !6
  %230 = load i8, ptr %228, align 1, !tbaa !21
  %231 = zext i8 %230 to i32
  %232 = shl i32 %231, 16
  %233 = load i32, ptr %20, align 4, !tbaa !19
  %234 = or i32 %233, %232
  store i32 %234, ptr %20, align 4, !tbaa !19
  %235 = load ptr, ptr %24, align 8, !tbaa !6
  %236 = getelementptr inbounds nuw i8, ptr %235, i32 1
  store ptr %236, ptr %24, align 8, !tbaa !6
  %237 = load i8, ptr %235, align 1, !tbaa !21
  %238 = zext i8 %237 to i32
  %239 = shl i32 %238, 24
  %240 = load i32, ptr %20, align 4, !tbaa !19
  %241 = or i32 %240, %239
  store i32 %241, ptr %20, align 4, !tbaa !19
  %242 = load i32, ptr %19, align 4, !tbaa !19
  %243 = getelementptr inbounds [2 x i32], ptr %23, i64 0, i64 0
  store i32 %242, ptr %243, align 4, !tbaa !19
  %244 = load i32, ptr %20, align 4, !tbaa !19
  %245 = getelementptr inbounds [2 x i32], ptr %23, i64 0, i64 1
  store i32 %244, ptr %245, align 4, !tbaa !19
  %246 = getelementptr inbounds [2 x i32], ptr %23, i64 0, i64 0
  %247 = load ptr, ptr %13, align 8, !tbaa !13
  %248 = load ptr, ptr %14, align 8, !tbaa !13
  %249 = load ptr, ptr %15, align 8, !tbaa !13
  call void @DES_encrypt3(ptr noundef %246, ptr noundef %247, ptr noundef %248, ptr noundef %249)
  %250 = getelementptr inbounds [2 x i32], ptr %23, i64 0, i64 0
  %251 = load i32, ptr %250, align 4, !tbaa !19
  store i32 %251, ptr %19, align 4, !tbaa !19
  %252 = getelementptr inbounds [2 x i32], ptr %23, i64 0, i64 1
  %253 = load i32, ptr %252, align 4, !tbaa !19
  store i32 %253, ptr %20, align 4, !tbaa !19
  %254 = load ptr, ptr %16, align 8, !tbaa !15
  %255 = getelementptr inbounds nuw %struct.DES_cblock_st, ptr %254, i32 0, i32 0
  %256 = getelementptr inbounds [8 x i8], ptr %255, i64 0, i64 0
  store ptr %256, ptr %24, align 8, !tbaa !6
  %257 = load i32, ptr %19, align 4, !tbaa !19
  %258 = and i32 %257, 255
  %259 = trunc i32 %258 to i8
  %260 = load ptr, ptr %24, align 8, !tbaa !6
  %261 = getelementptr inbounds nuw i8, ptr %260, i32 1
  store ptr %261, ptr %24, align 8, !tbaa !6
  store i8 %259, ptr %260, align 1, !tbaa !21
  %262 = load i32, ptr %19, align 4, !tbaa !19
  %263 = lshr i32 %262, 8
  %264 = and i32 %263, 255
  %265 = trunc i32 %264 to i8
  %266 = load ptr, ptr %24, align 8, !tbaa !6
  %267 = getelementptr inbounds nuw i8, ptr %266, i32 1
  store ptr %267, ptr %24, align 8, !tbaa !6
  store i8 %265, ptr %266, align 1, !tbaa !21
  %268 = load i32, ptr %19, align 4, !tbaa !19
  %269 = lshr i32 %268, 16
  %270 = and i32 %269, 255
  %271 = trunc i32 %270 to i8
  %272 = load ptr, ptr %24, align 8, !tbaa !6
  %273 = getelementptr inbounds nuw i8, ptr %272, i32 1
  store ptr %273, ptr %24, align 8, !tbaa !6
  store i8 %271, ptr %272, align 1, !tbaa !21
  %274 = load i32, ptr %19, align 4, !tbaa !19
  %275 = lshr i32 %274, 24
  %276 = and i32 %275, 255
  %277 = trunc i32 %276 to i8
  %278 = load ptr, ptr %24, align 8, !tbaa !6
  %279 = getelementptr inbounds nuw i8, ptr %278, i32 1
  store ptr %279, ptr %24, align 8, !tbaa !6
  store i8 %277, ptr %278, align 1, !tbaa !21
  %280 = load i32, ptr %20, align 4, !tbaa !19
  %281 = and i32 %280, 255
  %282 = trunc i32 %281 to i8
  %283 = load ptr, ptr %24, align 8, !tbaa !6
  %284 = getelementptr inbounds nuw i8, ptr %283, i32 1
  store ptr %284, ptr %24, align 8, !tbaa !6
  store i8 %282, ptr %283, align 1, !tbaa !21
  %285 = load i32, ptr %20, align 4, !tbaa !19
  %286 = lshr i32 %285, 8
  %287 = and i32 %286, 255
  %288 = trunc i32 %287 to i8
  %289 = load ptr, ptr %24, align 8, !tbaa !6
  %290 = getelementptr inbounds nuw i8, ptr %289, i32 1
  store ptr %290, ptr %24, align 8, !tbaa !6
  store i8 %288, ptr %289, align 1, !tbaa !21
  %291 = load i32, ptr %20, align 4, !tbaa !19
  %292 = lshr i32 %291, 16
  %293 = and i32 %292, 255
  %294 = trunc i32 %293 to i8
  %295 = load ptr, ptr %24, align 8, !tbaa !6
  %296 = getelementptr inbounds nuw i8, ptr %295, i32 1
  store ptr %296, ptr %24, align 8, !tbaa !6
  store i8 %294, ptr %295, align 1, !tbaa !21
  %297 = load i32, ptr %20, align 4, !tbaa !19
  %298 = lshr i32 %297, 24
  %299 = and i32 %298, 255
  %300 = trunc i32 %299 to i8
  %301 = load ptr, ptr %24, align 8, !tbaa !6
  %302 = getelementptr inbounds nuw i8, ptr %301, i32 1
  store ptr %302, ptr %24, align 8, !tbaa !6
  store i8 %300, ptr %301, align 1, !tbaa !21
  %303 = load ptr, ptr %16, align 8, !tbaa !15
  %304 = getelementptr inbounds nuw %struct.DES_cblock_st, ptr %303, i32 0, i32 0
  %305 = getelementptr inbounds [8 x i8], ptr %304, i64 0, i64 0
  store ptr %305, ptr %24, align 8, !tbaa !6
  br label %306

306:                                              ; preds = %191, %188
  %307 = load ptr, ptr %10, align 8, !tbaa !6
  %308 = getelementptr inbounds nuw i8, ptr %307, i32 1
  store ptr %308, ptr %10, align 8, !tbaa !6
  %309 = load i8, ptr %307, align 1, !tbaa !21
  store i8 %309, ptr %26, align 1, !tbaa !21
  %310 = load ptr, ptr %24, align 8, !tbaa !6
  %311 = load i32, ptr %22, align 4, !tbaa !19
  %312 = sext i32 %311 to i64
  %313 = getelementptr inbounds i8, ptr %310, i64 %312
  %314 = load i8, ptr %313, align 1, !tbaa !21
  store i8 %314, ptr %25, align 1, !tbaa !21
  %315 = load i8, ptr %26, align 1, !tbaa !21
  %316 = load ptr, ptr %24, align 8, !tbaa !6
  %317 = load i32, ptr %22, align 4, !tbaa !19
  %318 = sext i32 %317 to i64
  %319 = getelementptr inbounds i8, ptr %316, i64 %318
  store i8 %315, ptr %319, align 1, !tbaa !21
  %320 = load i8, ptr %25, align 1, !tbaa !21
  %321 = zext i8 %320 to i32
  %322 = load i8, ptr %26, align 1, !tbaa !21
  %323 = zext i8 %322 to i32
  %324 = xor i32 %321, %323
  %325 = trunc i32 %324 to i8
  %326 = load ptr, ptr %11, align 8, !tbaa !6
  %327 = getelementptr inbounds nuw i8, ptr %326, i32 1
  store ptr %327, ptr %11, align 8, !tbaa !6
  store i8 %325, ptr %326, align 1, !tbaa !21
  %328 = load i32, ptr %22, align 4, !tbaa !19
  %329 = add nsw i32 %328, 1
  %330 = and i32 %329, 7
  store i32 %330, ptr %22, align 4, !tbaa !19
  br label %184, !llvm.loop !24

331:                                              ; preds = %184
  br label %332

332:                                              ; preds = %331, %182
  store i8 0, ptr %26, align 1, !tbaa !21
  store i8 0, ptr %25, align 1, !tbaa !21
  %333 = getelementptr inbounds [2 x i32], ptr %23, i64 0, i64 1
  store i32 0, ptr %333, align 4, !tbaa !19
  %334 = getelementptr inbounds [2 x i32], ptr %23, i64 0, i64 0
  store i32 0, ptr %334, align 4, !tbaa !19
  store i32 0, ptr %20, align 4, !tbaa !19
  store i32 0, ptr %19, align 4, !tbaa !19
  %335 = load i32, ptr %22, align 4, !tbaa !19
  %336 = load ptr, ptr %17, align 8, !tbaa !17
  store i32 %335, ptr %336, align 4, !tbaa !19
  call void @llvm.lifetime.end.p0(i64 1, ptr %26) #4
  call void @llvm.lifetime.end.p0(i64 1, ptr %25) #4
  call void @llvm.lifetime.end.p0(i64 8, ptr %24) #4
  call void @llvm.lifetime.end.p0(i64 8, ptr %23) #4
  call void @llvm.lifetime.end.p0(i64 4, ptr %22) #4
  call void @llvm.lifetime.end.p0(i64 8, ptr %21) #4
  call void @llvm.lifetime.end.p0(i64 4, ptr %20) #4
  call void @llvm.lifetime.end.p0(i64 4, ptr %19) #4
  ret void
}