; Function Attrs: nounwind uwtable
define hidden void @DES_ede3_cfb64_encrypt(ptr noundef readonly captures(none) %0, ptr noundef writeonly captures(none) %1, i64 noundef %2, ptr noundef %3, ptr noundef %4, ptr noundef %5, ptr noundef captures(none) %6, ptr noundef captures(none) %7, i32 noundef %8) local_unnamed_addr #0 {
  %10 = alloca [2 x i32], align 4
  %11 = load i32, ptr %7, align 4, !tbaa !6
  call void @llvm.lifetime.start.p0(i64 8, ptr nonnull %10) #4
  %.not = icmp eq i32 %8, 0
  %.not111119 = icmp eq i64 %2, 0
  br i1 %.not, label %.preheader, label %.preheader113

.preheader113:                                    ; preds = %9
  br i1 %.not111119, label %.loopexit, label %.lr.ph

.lr.ph:                                           ; preds = %.preheader113
  %12 = getelementptr inbounds nuw i8, ptr %6, i64 1
  %13 = getelementptr inbounds nuw i8, ptr %6, i64 2
  %14 = getelementptr inbounds nuw i8, ptr %6, i64 3
  %15 = getelementptr inbounds nuw i8, ptr %6, i64 4
  %16 = getelementptr inbounds nuw i8, ptr %6, i64 5
  %17 = getelementptr inbounds nuw i8, ptr %6, i64 6
  %18 = getelementptr inbounds nuw i8, ptr %6, i64 7
  %19 = getelementptr inbounds nuw i8, ptr %10, i64 4
  br label %28

.preheader:                                       ; preds = %9
  br i1 %.not111119, label %.loopexit, label %.lr.ph123

.lr.ph123:                                        ; preds = %.preheader
  %20 = getelementptr inbounds nuw i8, ptr %6, i64 1
  %21 = getelementptr inbounds nuw i8, ptr %6, i64 2
  %22 = getelementptr inbounds nuw i8, ptr %6, i64 3
  %23 = getelementptr inbounds nuw i8, ptr %6, i64 4
  %24 = getelementptr inbounds nuw i8, ptr %6, i64 5
  %25 = getelementptr inbounds nuw i8, ptr %6, i64 6
  %26 = getelementptr inbounds nuw i8, ptr %6, i64 7
  %27 = getelementptr inbounds nuw i8, ptr %10, i64 4
  br label %60

28:                                               ; preds = %.lr.ph, %50
  %.in = phi i64 [ %2, %.lr.ph ], [ %29, %50 ]
  %.0102118 = phi i32 [ %11, %.lr.ph ], [ %59, %50 ]
  %.0107117 = phi ptr [ %0, %.lr.ph ], [ %51, %50 ]
  %.0109116 = phi ptr [ %1, %.lr.ph ], [ %57, %50 ]
  %29 = add nsw i64 %.in, -1
  %30 = icmp eq i32 %.0102118, 0
  br i1 %30, label %31, label %50

31:                                               ; preds = %28
  %32 = load i32, ptr %6, align 1
  %33 = load i32, ptr %15, align 1
  store i32 %32, ptr %10, align 4, !tbaa !6
  store i32 %33, ptr %19, align 4, !tbaa !6
  call void @DES_encrypt3(ptr noundef nonnull %10, ptr noundef %3, ptr noundef %4, ptr noundef %5) #4
  %34 = load i32, ptr %10, align 4, !tbaa !6
  %35 = load i32, ptr %19, align 4, !tbaa !6
  %36 = trunc i32 %34 to i8
  store i8 %36, ptr %6, align 1, !tbaa !10
  %37 = lshr i32 %34, 8
  %38 = trunc i32 %37 to i8
  store i8 %38, ptr %12, align 1, !tbaa !10
  %39 = lshr i32 %34, 16
  %40 = trunc i32 %39 to i8
  store i8 %40, ptr %13, align 1, !tbaa !10
  %41 = lshr i32 %34, 24
  %42 = trunc nuw i32 %41 to i8
  store i8 %42, ptr %14, align 1, !tbaa !10
  %43 = trunc i32 %35 to i8
  store i8 %43, ptr %15, align 1, !tbaa !10
  %44 = lshr i32 %35, 8
  %45 = trunc i32 %44 to i8
  store i8 %45, ptr %16, align 1, !tbaa !10
  %46 = lshr i32 %35, 16
  %47 = trunc i32 %46 to i8
  store i8 %47, ptr %17, align 1, !tbaa !10
  %48 = lshr i32 %35, 24
  %49 = trunc nuw i32 %48 to i8
  store i8 %49, ptr %18, align 1, !tbaa !10
  br label %50

50:                                               ; preds = %31, %28
  %51 = getelementptr inbounds nuw i8, ptr %.0107117, i64 1
  %52 = load i8, ptr %.0107117, align 1, !tbaa !10
  %53 = sext i32 %.0102118 to i64
  %54 = getelementptr inbounds i8, ptr %6, i64 %53
  %55 = load i8, ptr %54, align 1, !tbaa !10
  %56 = xor i8 %55, %52
  %57 = getelementptr inbounds nuw i8, ptr %.0109116, i64 1
  store i8 %56, ptr %.0109116, align 1, !tbaa !10
  store i8 %56, ptr %54, align 1, !tbaa !10
  %58 = add nsw i32 %.0102118, 1
  %59 = and i32 %58, 7
  %.not112 = icmp eq i64 %29, 0
  br i1 %.not112, label %.loopexit, label %28, !llvm.loop !11

60:                                               ; preds = %.lr.ph123, %82
  %.in125 = phi i64 [ %2, %.lr.ph123 ], [ %61, %82 ]
  %.2104122 = phi i32 [ %11, %.lr.ph123 ], [ %91, %82 ]
  %.1108121 = phi ptr [ %0, %.lr.ph123 ], [ %83, %82 ]
  %.1110120 = phi ptr [ %1, %.lr.ph123 ], [ %89, %82 ]
  %61 = add nsw i64 %.in125, -1
  %62 = icmp eq i32 %.2104122, 0
  br i1 %62, label %63, label %82

63:                                               ; preds = %60
  %64 = load i32, ptr %6, align 1
  %65 = load i32, ptr %23, align 1
  store i32 %64, ptr %10, align 4, !tbaa !6
  store i32 %65, ptr %27, align 4, !tbaa !6
  call void @DES_encrypt3(ptr noundef nonnull %10, ptr noundef %3, ptr noundef %4, ptr noundef %5) #4
  %66 = load i32, ptr %10, align 4, !tbaa !6
  %67 = load i32, ptr %27, align 4, !tbaa !6
  %68 = trunc i32 %66 to i8
  store i8 %68, ptr %6, align 1, !tbaa !10
  %69 = lshr i32 %66, 8
  %70 = trunc i32 %69 to i8
  store i8 %70, ptr %20, align 1, !tbaa !10
  %71 = lshr i32 %66, 16
  %72 = trunc i32 %71 to i8
  store i8 %72, ptr %21, align 1, !tbaa !10
  %73 = lshr i32 %66, 24
  %74 = trunc nuw i32 %73 to i8
  store i8 %74, ptr %22, align 1, !tbaa !10
  %75 = trunc i32 %67 to i8
  store i8 %75, ptr %23, align 1, !tbaa !10
  %76 = lshr i32 %67, 8
  %77 = trunc i32 %76 to i8
  store i8 %77, ptr %24, align 1, !tbaa !10
  %78 = lshr i32 %67, 16
  %79 = trunc i32 %78 to i8
  store i8 %79, ptr %25, align 1, !tbaa !10
  %80 = lshr i32 %67, 24
  %81 = trunc nuw i32 %80 to i8
  store i8 %81, ptr %26, align 1, !tbaa !10
  br label %82

82:                                               ; preds = %63, %60
  %83 = getelementptr inbounds nuw i8, ptr %.1108121, i64 1
  %84 = load i8, ptr %.1108121, align 1, !tbaa !10
  %85 = sext i32 %.2104122 to i64
  %86 = getelementptr inbounds i8, ptr %6, i64 %85
  %87 = load i8, ptr %86, align 1, !tbaa !10
  store i8 %84, ptr %86, align 1, !tbaa !10
  %88 = xor i8 %87, %84
  %89 = getelementptr inbounds nuw i8, ptr %.1110120, i64 1
  store i8 %88, ptr %.1110120, align 1, !tbaa !10
  %90 = add nsw i32 %.2104122, 1
  %91 = and i32 %90, 7
  %.not111 = icmp eq i64 %61, 0
  br i1 %.not111, label %.loopexit, label %60, !llvm.loop !13

.loopexit:                                        ; preds = %50, %82, %.preheader113, %.preheader
  %.1103 = phi i32 [ %11, %.preheader ], [ %11, %.preheader113 ], [ %91, %82 ], [ %59, %50 ]
  store i32 %.1103, ptr %7, align 4, !tbaa !6
  call void @llvm.lifetime.end.p0(i64 8, ptr nonnull %10) #4
  ret void
}